; Function Attrs: nounwind uwtable
define dso_local i32 @cm_zlib_gzsetparams(ptr noundef %0, i32 noundef %1, i32 noundef %2) local_unnamed_addr #0 {
  %4 = icmp eq ptr %0, null
  br i1 %4, label %69, label %5

5:                                                ; preds = %3
  %6 = getelementptr inbounds nuw i8, ptr %0, i64 128
  %7 = getelementptr inbounds nuw i8, ptr %0, i64 24
  %8 = load i32, ptr %7, align 8, !tbaa !4
  %.not = icmp eq i32 %8, 31153
  br i1 %.not, label %9, label %69

9:                                                ; preds = %5
  %10 = getelementptr inbounds nuw i8, ptr %0, i64 116
  %11 = load i32, ptr %10, align 4, !tbaa !15
  %.not27 = icmp eq i32 %11, 0
  br i1 %.not27, label %12, label %69

12:                                               ; preds = %9
  %13 = getelementptr inbounds nuw i8, ptr %0, i64 64
  %14 = load i32, ptr %13, align 8, !tbaa !30
  %.not28 = icmp eq i32 %14, 0
  br i1 %.not28, label %15, label %69

15:                                               ; preds = %12
  %16 = getelementptr inbounds nuw i8, ptr %0, i64 88
  %17 = load i32, ptr %16, align 8, !tbaa !32
  %18 = icmp eq i32 %1, %17
  br i1 %18, label %19, label %23

19:                                               ; preds = %15
  %20 = getelementptr inbounds nuw i8, ptr %0, i64 92
  %21 = load i32, ptr %20, align 4, !tbaa !33
  %22 = icmp eq i32 %2, %21
  br i1 %22, label %69, label %23

23:                                               ; preds = %19, %15
  %24 = getelementptr inbounds nuw i8, ptr %0, i64 112
  %25 = load i32, ptr %24, align 8, !tbaa !17
  %.not29 = icmp eq i32 %25, 0
  br i1 %.not29, label %gz_zero.exit, label %26

26:                                               ; preds = %23
  store i32 0, ptr %24, align 8, !tbaa !17
  %27 = getelementptr inbounds nuw i8, ptr %0, i64 104
  %28 = load i64, ptr %27, align 8, !tbaa !18
  %29 = getelementptr inbounds nuw i8, ptr %0, i64 136
  %30 = load i32, ptr %29, align 8, !tbaa !19
  %.not.i = icmp eq i32 %30, 0
  br i1 %.not.i, label %34, label %31

31:                                               ; preds = %26
  %32 = tail call fastcc i32 @gz_comp(ptr noundef nonnull %0, i32 noundef 0)
  %33 = icmp eq i32 %32, -1
  br i1 %33, label %.loopexit, label %34

34:                                               ; preds = %31, %26
  %.not2224.i = icmp eq i64 %28, 0
  br i1 %.not2224.i, label %gz_zero.exit, label %.lr.ph.i

.lr.ph.i:                                         ; preds = %34
  %35 = getelementptr inbounds nuw i8, ptr %0, i64 40
  %36 = getelementptr inbounds nuw i8, ptr %0, i64 48
  %37 = getelementptr inbounds nuw i8, ptr %0, i64 16
  br label %40

38:                                               ; preds = %48
  %39 = sub nsw i64 %.02026.i, %.pre-phi.i
  %.not22.i = icmp eq i64 %39, 0
  br i1 %.not22.i, label %gz_zero.exit, label %40, !llvm.loop !20

40:                                               ; preds = %38, %.lr.ph.i
  %.02026.i = phi i64 [ %28, %.lr.ph.i ], [ %39, %38 ]
  %.not2325.i = phi i1 [ false, %.lr.ph.i ], [ true, %38 ]
  %41 = load i32, ptr %35, align 8, !tbaa !16
  %42 = zext i32 %41 to i64
  %43 = tail call i64 @llvm.smin.i64(i64 %.02026.i, i64 %42)
  %44 = trunc i64 %43 to i32
  br i1 %.not2325.i, label %._crit_edge.i, label %45

._crit_edge.i:                                    ; preds = %40
  %.pre.i = and i64 %43, 4294967295
  br label %48

45:                                               ; preds = %40
  %46 = load ptr, ptr %36, align 8, !tbaa !22
  %47 = and i64 %43, 4294967295
  tail call void @llvm.memset.p0.i64(ptr align 1 %46, i8 0, i64 %47, i1 false)
  br label %48

48:                                               ; preds = %45, %._crit_edge.i
  %.pre-phi.i = phi i64 [ %.pre.i, %._crit_edge.i ], [ %47, %45 ]
  store i32 %44, ptr %29, align 8, !tbaa !19
  %49 = load ptr, ptr %36, align 8, !tbaa !22
  store ptr %49, ptr %6, align 8, !tbaa !23
  %50 = load i64, ptr %37, align 8, !tbaa !24
  %51 = add nsw i64 %50, %.pre-phi.i
  store i64 %51, ptr %37, align 8, !tbaa !24
  %52 = tail call fastcc i32 @gz_comp(ptr noundef nonnull %0, i32 noundef 0)
  %53 = icmp eq i32 %52, -1
  br i1 %53, label %.loopexit, label %38

.loopexit:                                        ; preds = %48, %31
  %54 = load i32, ptr %10, align 4, !tbaa !15
  br label %69

gz_zero.exit:                                     ; preds = %38, %34, %23
  %55 = getelementptr inbounds nuw i8, ptr %0, i64 40
  %56 = load i32, ptr %55, align 8, !tbaa !16
  %.not30 = icmp eq i32 %56, 0
  br i1 %.not30, label %67, label %57

57:                                               ; preds = %gz_zero.exit
  %58 = getelementptr inbounds nuw i8, ptr %0, i64 136
  %59 = load i32, ptr %58, align 8, !tbaa !19
  %.not31 = icmp eq i32 %59, 0
  br i1 %.not31, label %65, label %60

60:                                               ; preds = %57
  %61 = tail call fastcc i32 @gz_comp(ptr noundef %0, i32 noundef 5)
  %62 = icmp eq i32 %61, -1
  br i1 %62, label %63, label %65

63:                                               ; preds = %60
  %64 = load i32, ptr %10, align 4, !tbaa !15
  br label %69

65:                                               ; preds = %60, %57
  %66 = tail call i32 @cm_zlib_deflateParams(ptr noundef nonnull %6, i32 noundef %1, i32 noundef %2) #14
  br label %67

67:                                               ; preds = %65, %gz_zero.exit
  store i32 %1, ptr %16, align 8, !tbaa !32
  %68 = getelementptr inbounds nuw i8, ptr %0, i64 92
  store i32 %2, ptr %68, align 4, !tbaa !33
  br label %69

69:                                               ; preds = %19, %5, %9, %12, %3, %67, %63, %.loopexit
  %.0 = phi i32 [ %54, %.loopexit ], [ %64, %63 ], [ 0, %67 ], [ -2, %3 ], [ -2, %12 ], [ -2, %9 ], [ -2, %5 ], [ 0, %19 ]
  ret i32 %.0
}